; Function Attrs: nofree norecurse nosync nounwind memory(readwrite, inaccessiblemem: none) uwtable
define internal void @process_16(ptr noundef readonly captures(none) %0, ptr noundef readonly captures(none) %1, ptr noundef readonly captures(none) %2) #6 {
  %4 = getelementptr inbounds nuw i8, ptr %1, i64 108
  %5 = load i32, ptr %4, align 4, !tbaa !77
  %6 = icmp sgt i32 %5, 0
  br i1 %6, label %.lr.ph, label %._crit_edge40

.lr.ph:                                           ; preds = %3
  %7 = load ptr, ptr %1, align 8, !tbaa !76
  %8 = load ptr, ptr %2, align 8, !tbaa !76
  %9 = getelementptr inbounds nuw i8, ptr %1, i64 104
  %10 = load i32, ptr %9, align 8, !tbaa !82
  %11 = icmp sgt i32 %10, 0
  %12 = getelementptr inbounds nuw i8, ptr %0, i64 192
  %13 = getelementptr inbounds nuw i8, ptr %0, i64 28
  %14 = getelementptr inbounds nuw i8, ptr %0, i64 31
  br i1 %11, label %.lr.ph.split.us, label %._crit_edge40

.lr.ph.split.us:                                  ; preds = %.lr.ph
  %15 = getelementptr inbounds nuw i8, ptr %2, i64 64
  %16 = load i32, ptr %15, align 8, !tbaa !57
  %17 = getelementptr inbounds nuw i8, ptr %1, i64 64
  %18 = load i32, ptr %17, align 8, !tbaa !57
  %19 = getelementptr inbounds nuw i8, ptr %0, i64 72
  %20 = getelementptr inbounds nuw i8, ptr %0, i64 68
  %21 = load i32, ptr %20, align 4, !tbaa !69
  %22 = icmp eq i32 %21, 4
  %23 = load i32, ptr %19, align 8, !tbaa !70
  %24 = sext i32 %23 to i64
  %25 = sext i32 %18 to i64
  %26 = sext i32 %16 to i64
  %wide.trip.count64 = zext nneg i32 %5 to i64
  br i1 %22, label %.preheader.lr.ph.us.us, label %.preheader.lr.ph.us

.preheader.lr.ph.us.us:                           ; preds = %.lr.ph.split.us, %._crit_edge.split.us.us.us
  %indvars.iv61 = phi i64 [ %indvars.iv.next62, %._crit_edge.split.us.us.us ], [ 0, %.lr.ph.split.us ]
  %27 = mul nsw i64 %indvars.iv61, %25
  %28 = getelementptr inbounds i8, ptr %7, i64 %27
  %29 = mul nsw i64 %indvars.iv61, %26
  %30 = getelementptr inbounds i8, ptr %8, i64 %29
  br label %.preheader.us.us.us

.preheader.us.us.us:                              ; preds = %31, %.preheader.lr.ph.us.us
  %.03037.us.us.us = phi i32 [ 0, %.preheader.lr.ph.us.us ], [ %39, %31 ]
  %.03136.us.us.us = phi ptr [ %30, %.preheader.lr.ph.us.us ], [ %38, %31 ]
  %.03235.us.us.us = phi ptr [ %28, %.preheader.lr.ph.us.us ], [ %37, %31 ]
  br label %40

31:                                               ; preds = %40
  %32 = load i8, ptr %14, align 1, !tbaa !73
  %33 = zext i8 %32 to i64
  %34 = getelementptr inbounds nuw i16, ptr %.03235.us.us.us, i64 %33
  %35 = load i16, ptr %34, align 2, !tbaa !46
  %36 = getelementptr inbounds nuw i16, ptr %.03136.us.us.us, i64 %33
  store i16 %35, ptr %36, align 2, !tbaa !46
  %37 = getelementptr inbounds i16, ptr %.03235.us.us.us, i64 %24
  %38 = getelementptr inbounds i16, ptr %.03136.us.us.us, i64 %24
  %39 = add nuw nsw i32 %.03037.us.us.us, 1
  %exitcond60.not = icmp eq i32 %39, %10
  br i1 %exitcond60.not, label %._crit_edge.split.us.us.us, label %.preheader.us.us.us, !llvm.loop !103

40:                                               ; preds = %40, %.preheader.us.us.us
  %indvars.iv56 = phi i64 [ %indvars.iv.next57, %40 ], [ 0, %.preheader.us.us.us ]
  %41 = getelementptr inbounds nuw [4 x i8], ptr %13, i64 0, i64 %indvars.iv56
  %42 = load i8, ptr %41, align 1, !tbaa !73
  %43 = zext i8 %42 to i64
  %44 = getelementptr inbounds nuw i16, ptr %.03235.us.us.us, i64 %43
  %45 = load i16, ptr %44, align 2, !tbaa !46
  %46 = zext i16 %45 to i64
  %47 = getelementptr inbounds nuw [3 x [65536 x i16]], ptr %12, i64 0, i64 %indvars.iv56, i64 %46
  %48 = load i16, ptr %47, align 2, !tbaa !46
  %49 = getelementptr inbounds nuw i16, ptr %.03136.us.us.us, i64 %43
  store i16 %48, ptr %49, align 2, !tbaa !46
  %indvars.iv.next57 = add nuw nsw i64 %indvars.iv56, 1
  %exitcond59.not = icmp eq i64 %indvars.iv.next57, 3
  br i1 %exitcond59.not, label %31, label %40, !llvm.loop !104

._crit_edge.split.us.us.us:                       ; preds = %31
  %indvars.iv.next62 = add nuw nsw i64 %indvars.iv61, 1
  %exitcond65.not = icmp eq i64 %indvars.iv.next62, %wide.trip.count64
  br i1 %exitcond65.not, label %._crit_edge40, label %.preheader.lr.ph.us.us, !llvm.loop !105

.preheader.lr.ph.us:                              ; preds = %.lr.ph.split.us, %._crit_edge.split.us46
  %indvars.iv52 = phi i64 [ %indvars.iv.next53, %._crit_edge.split.us46 ], [ 0, %.lr.ph.split.us ]
  %50 = mul nsw i64 %indvars.iv52, %25
  %51 = getelementptr inbounds i8, ptr %7, i64 %50
  %52 = mul nsw i64 %indvars.iv52, %26
  %53 = getelementptr inbounds i8, ptr %8, i64 %52
  br label %.preheader.us42

54:                                               ; preds = %58
  %55 = getelementptr inbounds i16, ptr %.03235.us45, i64 %24
  %56 = getelementptr inbounds i16, ptr %.03136.us44, i64 %24
  %57 = add nuw nsw i32 %.03037.us43, 1
  %exitcond51.not = icmp eq i32 %57, %10
  br i1 %exitcond51.not, label %._crit_edge.split.us46, label %.preheader.us42, !llvm.loop !103

58:                                               ; preds = %.preheader.us42, %58
  %indvars.iv = phi i64 [ 0, %.preheader.us42 ], [ %indvars.iv.next, %58 ]
  %59 = getelementptr inbounds nuw [4 x i8], ptr %13, i64 0, i64 %indvars.iv
  %60 = load i8, ptr %59, align 1, !tbaa !73
  %61 = zext i8 %60 to i64
  %62 = getelementptr inbounds nuw i16, ptr %.03235.us45, i64 %61
  %63 = load i16, ptr %62, align 2, !tbaa !46
  %64 = zext i16 %63 to i64
  %65 = getelementptr inbounds nuw [3 x [65536 x i16]], ptr %12, i64 0, i64 %indvars.iv, i64 %64
  %66 = load i16, ptr %65, align 2, !tbaa !46
  %67 = getelementptr inbounds nuw i16, ptr %.03136.us44, i64 %61
  store i16 %66, ptr %67, align 2, !tbaa !46
  %indvars.iv.next = add nuw nsw i64 %indvars.iv, 1
  %exitcond.not = icmp eq i64 %indvars.iv.next, 3
  br i1 %exitcond.not, label %54, label %58, !llvm.loop !104

.preheader.us42:                                  ; preds = %.preheader.lr.ph.us, %54
  %.03037.us43 = phi i32 [ 0, %.preheader.lr.ph.us ], [ %57, %54 ]
  %.03136.us44 = phi ptr [ %53, %.preheader.lr.ph.us ], [ %56, %54 ]
  %.03235.us45 = phi ptr [ %51, %.preheader.lr.ph.us ], [ %55, %54 ]
  br label %58

._crit_edge.split.us46:                           ; preds = %54
  %indvars.iv.next53 = add nuw nsw i64 %indvars.iv52, 1
  %exitcond55.not = icmp eq i64 %indvars.iv.next53, %wide.trip.count64
  br i1 %exitcond55.not, label %._crit_edge40, label %.preheader.lr.ph.us, !llvm.loop !105

._crit_edge40:                                    ; preds = %._crit_edge.split.us46, %._crit_edge.split.us.us.us, %.lr.ph, %3
  ret void
}